target datalayout = "e-m:e-p270:32:32-p271:32:32-p272:64:64-i64:64-i128:128-f80:128-n8:16:32:64-S128"
target triple = "x86_64-pc-linux-gnu"

@.str.4 = private unnamed_addr constant [122 x i8] c"generated/home/dtcxzyw/WorkSpace/Projects/compilers/llvm-opt-benchmark/bench/libquic/libquic/boringssl/crypto/evp/print.c\00", align 1
@.str.32 = private unnamed_addr constant [12 x i8] c"Private-Key\00", align 1
@.str.33 = private unnamed_addr constant [11 x i8] c"Public-Key\00", align 1
@.str.34 = private unnamed_addr constant [14 x i8] c"%s: (%d bit)\0A\00", align 1
@.str.35 = private unnamed_addr constant [6 x i8] c"priv:\00", align 1
@.str.40 = private unnamed_addr constant [17 x i8] c"ECDSA-Parameters\00", align 1

; Function Attrs: nounwind uwtable
define internal i32 @do_EC_KEY_print(ptr noundef %0, ptr noundef %1, i32 noundef %2, i32 noundef %3) #0 {
  %5 = alloca ptr, align 8
  %6 = alloca ptr, align 8
  %7 = alloca i32, align 4
  %8 = alloca i32, align 4
  %9 = alloca ptr, align 8
  %10 = alloca ptr, align 8
  %11 = alloca i64, align 8
  %12 = alloca i64, align 8
  %13 = alloca i32, align 4
  %14 = alloca i32, align 4
  %15 = alloca ptr, align 8
  %16 = alloca ptr, align 8
  %17 = alloca ptr, align 8
  %18 = alloca ptr, align 8
  %19 = alloca ptr, align 8
  %20 = alloca ptr, align 8
  %21 = alloca i64, align 8
  store ptr %0, ptr %5, align 8, !tbaa !6
  store ptr %1, ptr %6, align 8, !tbaa !74
  store i32 %2, ptr %7, align 4, !tbaa !13
  store i32 %3, ptr %8, align 4, !tbaa !13
  call void @llvm.lifetime.start.p0(i64 8, ptr %9) #5
  store ptr null, ptr %9, align 8, !tbaa !28
  call void @llvm.lifetime.start.p0(i64 8, ptr %10) #5
  call void @llvm.lifetime.start.p0(i64 8, ptr %11) #5
  store i64 0, ptr %11, align 8, !tbaa !23
  call void @llvm.lifetime.start.p0(i64 8, ptr %12) #5
  call void @llvm.lifetime.start.p0(i64 4, ptr %13) #5
  store i32 0, ptr %13, align 4, !tbaa !13
  call void @llvm.lifetime.start.p0(i64 4, ptr %14) #5
  store i32 17, ptr %14, align 4, !tbaa !13
  call void @llvm.lifetime.start.p0(i64 8, ptr %15) #5
  store ptr null, ptr %15, align 8, !tbaa !60
  call void @llvm.lifetime.start.p0(i64 8, ptr %16) #5
  store ptr null, ptr %16, align 8, !tbaa !76
  call void @llvm.lifetime.start.p0(i64 8, ptr %17) #5
  call void @llvm.lifetime.start.p0(i64 8, ptr %18) #5
  call void @llvm.lifetime.start.p0(i64 8, ptr %19) #5
  call void @llvm.lifetime.start.p0(i64 8, ptr %20) #5
  store ptr null, ptr %20, align 8, !tbaa !28
  call void @llvm.lifetime.start.p0(i64 8, ptr %21) #5
  store i64 0, ptr %21, align 8, !tbaa !23
  %22 = load ptr, ptr %6, align 8, !tbaa !74
  %23 = icmp eq ptr %22, null
  br i1 %23, label %28, label %24

24:                                               ; preds = %4
  %25 = load ptr, ptr %6, align 8, !tbaa !74
  %26 = call ptr @EC_KEY_get0_group(ptr noundef %25)
  store ptr %26, ptr %17, align 8, !tbaa !78
  %27 = icmp eq ptr %26, null
  br i1 %27, label %28, label %29

28:                                               ; preds = %24, %4
  store i32 67, ptr %14, align 4, !tbaa !13
  br label %156

29:                                               ; preds = %24
  %30 = call ptr @BN_CTX_new()
  store ptr %30, ptr %16, align 8, !tbaa !76
  %31 = load ptr, ptr %16, align 8, !tbaa !76
  %32 = icmp eq ptr %31, null
  br i1 %32, label %33, label %34

33:                                               ; preds = %29
  store i32 65, ptr %14, align 4, !tbaa !13
  br label %156

34:                                               ; preds = %29
  %35 = load i32, ptr %8, align 4, !tbaa !13
  %36 = icmp sgt i32 %35, 0
  br i1 %36, label %37, label %73

37:                                               ; preds = %34
  %38 = load ptr, ptr %6, align 8, !tbaa !74
  %39 = call ptr @EC_KEY_get0_public_key(ptr noundef %38)
  store ptr %39, ptr %18, align 8, !tbaa !80
  %40 = load ptr, ptr %18, align 8, !tbaa !80
  %41 = icmp ne ptr %40, null
  br i1 %41, label %42, label %72

42:                                               ; preds = %37
  %43 = load ptr, ptr %17, align 8, !tbaa !78
  %44 = load ptr, ptr %18, align 8, !tbaa !80
  %45 = load ptr, ptr %6, align 8, !tbaa !74
  %46 = call i32 @EC_KEY_get_conv_form(ptr noundef %45)
  %47 = load ptr, ptr %16, align 8, !tbaa !76
  %48 = call i64 @EC_POINT_point2oct(ptr noundef %43, ptr noundef %44, i32 noundef %46, ptr noundef null, i64 noundef 0, ptr noundef %47)
  store i64 %48, ptr %21, align 8, !tbaa !23
  %49 = load i64, ptr %21, align 8, !tbaa !23
  %50 = icmp eq i64 %49, 0
  br i1 %50, label %51, label %52

51:                                               ; preds = %42
  store i32 65, ptr %14, align 4, !tbaa !13
  br label %156

52:                                               ; preds = %42
  %53 = load i64, ptr %21, align 8, !tbaa !23
  %54 = call noalias ptr @malloc(i64 noundef %53) #6
  store ptr %54, ptr %20, align 8, !tbaa !28
  %55 = load ptr, ptr %20, align 8, !tbaa !28
  %56 = icmp eq ptr %55, null
  br i1 %56, label %57, label %58

57:                                               ; preds = %52
  store i32 65, ptr %14, align 4, !tbaa !13
  br label %156

58:                                               ; preds = %52
  %59 = load ptr, ptr %17, align 8, !tbaa !78
  %60 = load ptr, ptr %18, align 8, !tbaa !80
  %61 = load ptr, ptr %6, align 8, !tbaa !74
  %62 = call i32 @EC_KEY_get_conv_form(ptr noundef %61)
  %63 = load ptr, ptr %20, align 8, !tbaa !28
  %64 = load i64, ptr %21, align 8, !tbaa !23
  %65 = load ptr, ptr %16, align 8, !tbaa !76
  %66 = call i64 @EC_POINT_point2oct(ptr noundef %59, ptr noundef %60, i32 noundef %62, ptr noundef %63, i64 noundef %64, ptr noundef %65)
  store i64 %66, ptr %21, align 8, !tbaa !23
  %67 = load i64, ptr %21, align 8, !tbaa !23
  %68 = icmp eq i64 %67, 0
  br i1 %68, label %69, label %70

69:                                               ; preds = %58
  store i32 65, ptr %14, align 4, !tbaa !13
  br label %156

70:                                               ; preds = %58
  %71 = load i64, ptr %21, align 8, !tbaa !23
  store i64 %71, ptr %11, align 8, !tbaa !23
  br label %72

72:                                               ; preds = %70, %37
  br label %73

73:                                               ; preds = %72, %34
  %74 = load i32, ptr %8, align 4, !tbaa !13
  %75 = icmp eq i32 %74, 2
  br i1 %75, label %76, label %90

76:                                               ; preds = %73
  %77 = load ptr, ptr %6, align 8, !tbaa !74
  %78 = call ptr @EC_KEY_get0_private_key(ptr noundef %77)
  store ptr %78, ptr %19, align 8, !tbaa !60
  %79 = load ptr, ptr %19, align 8, !tbaa !60
  %80 = icmp ne ptr %79, null
  br i1 %80, label %81, label %89

81:                                               ; preds = %76
  %82 = load ptr, ptr %19, align 8, !tbaa !60
  %83 = call i32 @BN_num_bytes(ptr noundef %82)
  %84 = zext i32 %83 to i64
  store i64 %84, ptr %12, align 8, !tbaa !23
  %85 = load i64, ptr %11, align 8, !tbaa !23
  %86 = icmp ugt i64 %84, %85
  br i1 %86, label %87, label %89

87:                                               ; preds = %81
  %88 = load i64, ptr %12, align 8, !tbaa !23
  store i64 %88, ptr %11, align 8, !tbaa !23
  br label %89

89:                                               ; preds = %87, %81, %76
  br label %91

90:                                               ; preds = %73
  store ptr null, ptr %19, align 8, !tbaa !60
  br label %91

91:                                               ; preds = %90, %89
  %92 = load i32, ptr %8, align 4, !tbaa !13
  %93 = icmp sgt i32 %92, 0
  br i1 %93, label %94, label %102

94:                                               ; preds = %91
  %95 = load i64, ptr %11, align 8, !tbaa !23
  %96 = add i64 %95, 10
  store i64 %96, ptr %11, align 8, !tbaa !23
  %97 = load i64, ptr %11, align 8, !tbaa !23
  %98 = call noalias ptr @malloc(i64 noundef %97) #6
  store ptr %98, ptr %9, align 8, !tbaa !28
  %99 = icmp eq ptr %98, null
  br i1 %99, label %100, label %101

100:                                              ; preds = %94
  store i32 65, ptr %14, align 4, !tbaa !13
  br label %156

101:                                              ; preds = %94
  br label %102

102:                                              ; preds = %101, %91
  %103 = load i32, ptr %8, align 4, !tbaa !13
  %104 = icmp eq i32 %103, 2
  br i1 %104, label %105, label %106

105:                                              ; preds = %102
  store ptr @.str.32, ptr %10, align 8, !tbaa !28
  br label %112

106:                                              ; preds = %102
  %107 = load i32, ptr %8, align 4, !tbaa !13
  %108 = icmp eq i32 %107, 1
  br i1 %108, label %109, label %110

109:                                              ; preds = %106
  store ptr @.str.33, ptr %10, align 8, !tbaa !28
  br label %111

110:                                              ; preds = %106
  store ptr @.str.40, ptr %10, align 8, !tbaa !28
  br label %111

111:                                              ; preds = %110, %109
  br label %112

112:                                              ; preds = %111, %105
  %113 = load ptr, ptr %5, align 8, !tbaa !6
  %114 = load i32, ptr %7, align 4, !tbaa !13
  %115 = call i32 @BIO_indent(ptr noundef %113, i32 noundef %114, i32 noundef 128)
  %116 = icmp ne i32 %115, 0
  br i1 %116, label %118, label %117

117:                                              ; preds = %112
  br label %156

118:                                              ; preds = %112
  %119 = call ptr @BN_new()
  store ptr %119, ptr %15, align 8, !tbaa !60
  %120 = load ptr, ptr %15, align 8, !tbaa !60
  %121 = icmp eq ptr %120, null
  br i1 %121, label %134, label %122

122:                                              ; preds = %118
  %123 = load ptr, ptr %17, align 8, !tbaa !78
  %124 = load ptr, ptr %15, align 8, !tbaa !60
  %125 = call i32 @EC_GROUP_get_order(ptr noundef %123, ptr noundef %124, ptr noundef null)
  %126 = icmp ne i32 %125, 0
  br i1 %126, label %127, label %134

127:                                              ; preds = %122
  %128 = load ptr, ptr %5, align 8, !tbaa !6
  %129 = load ptr, ptr %10, align 8, !tbaa !28
  %130 = load ptr, ptr %15, align 8, !tbaa !60
  %131 = call i32 @BN_num_bits(ptr noundef %130)
  %132 = call i32 (ptr, ptr, ...) @BIO_printf(ptr noundef %128, ptr noundef @.str.34, ptr noundef %129, i32 noundef %131)
  %133 = icmp sle i32 %132, 0
  br i1 %133, label %134, label %135

134:                                              ; preds = %127, %122, %118
  br label %156

135:                                              ; preds = %127
  %136 = load ptr, ptr %19, align 8, !tbaa !60
  %137 = icmp ne ptr %136, null
  br i1 %137, label %138, label %146

138:                                              ; preds = %135
  %139 = load ptr, ptr %5, align 8, !tbaa !6
  %140 = load ptr, ptr %19, align 8, !tbaa !60
  %141 = load ptr, ptr %9, align 8, !tbaa !28
  %142 = load i32, ptr %7, align 4, !tbaa !13
  %143 = call i32 @bn_print(ptr noundef %139, ptr noundef @.str.35, ptr noundef %140, ptr noundef %141, i32 noundef %142)
  %144 = icmp ne i32 %143, 0
  br i1 %144, label %146, label %145

145:                                              ; preds = %138
  br label %156

146:                                              ; preds = %138, %135
  %147 = load ptr, ptr %20, align 8, !tbaa !28
  %148 = icmp ne ptr %147, null
  br i1 %148, label %149, label %155

149:                                              ; preds = %146
  %150 = load ptr, ptr %5, align 8, !tbaa !6
  %151 = load ptr, ptr %20, align 8, !tbaa !28
  %152 = load i64, ptr %21, align 8, !tbaa !23
  %153 = load i32, ptr %7, align 4, !tbaa !13
  %154 = call i32 @BIO_hexdump(ptr noundef %150, ptr noundef %151, i64 noundef %152, i32 noundef %153)
  br label %155

155:                                              ; preds = %149, %146
  store i32 1, ptr %13, align 4, !tbaa !13
  br label %156

156:                                              ; preds = %155, %145, %134, %117, %100, %69, %57, %51, %33, %28
  %157 = load i32, ptr %13, align 4, !tbaa !13
  %158 = icmp ne i32 %157, 0
  br i1 %158, label %161, label %159

159:                                              ; preds = %156
  %160 = load i32, ptr %14, align 4, !tbaa !13
  call void @ERR_put_error(i32 noundef 6, i32 noundef 0, i32 noundef %160, ptr noundef @.str.4, i32 noundef 426)
  br label %161

161:                                              ; preds = %159, %156
  %162 = load ptr, ptr %20, align 8, !tbaa !28
  call void @free(ptr noundef %162) #5
  %163 = load ptr, ptr %15, align 8, !tbaa !60
  call void @BN_free(ptr noundef %163)
  %164 = load ptr, ptr %16, align 8, !tbaa !76
  call void @BN_CTX_free(ptr noundef %164)
  %165 = load ptr, ptr %9, align 8, !tbaa !28
  call void @free(ptr noundef %165) #5
  %166 = load i32, ptr %13, align 4, !tbaa !13
  call void @llvm.lifetime.end.p0(i64 8, ptr %21) #5
  call void @llvm.lifetime.end.p0(i64 8, ptr %20) #5
  call void @llvm.lifetime.end.p0(i64 8, ptr %19) #5
  call void @llvm.lifetime.end.p0(i64 8, ptr %18) #5
  call void @llvm.lifetime.end.p0(i64 8, ptr %17) #5
  call void @llvm.lifetime.end.p0(i64 8, ptr %16) #5
  call void @llvm.lifetime.end.p0(i64 8, ptr %15) #5
  call void @llvm.lifetime.end.p0(i64 4, ptr %14) #5
  call void @llvm.lifetime.end.p0(i64 4, ptr %13) #5
  call void @llvm.lifetime.end.p0(i64 8, ptr %12) #5
  call void @llvm.lifetime.end.p0(i64 8, ptr %11) #5
  call void @llvm.lifetime.end.p0(i64 8, ptr %10) #5
  call void @llvm.lifetime.end.p0(i64 8, ptr %9) #5
  ret i32 %166
}