; Function Attrs: nounwind uwtable
define internal fastcc range(i32 0, 2) i32 @do_EC_KEY_print(ptr noundef %0, ptr noundef %1, i32 noundef %2, i32 noundef range(i32 0, 3) %3) unnamed_addr #0 {
  %5 = icmp eq ptr %1, null
  br i1 %5, label %56, label %6

6:                                                ; preds = %4
  %7 = tail call ptr @EC_KEY_get0_group(ptr noundef nonnull %1) #5
  %8 = icmp eq ptr %7, null
  br i1 %8, label %56, label %9

9:                                                ; preds = %6
  %10 = tail call ptr @BN_CTX_new() #5
  %11 = icmp eq ptr %10, null
  br i1 %11, label %56, label %12

12:                                               ; preds = %9
  %.not = icmp eq i32 %3, 0
  br i1 %.not, label %.thread108, label %13

13:                                               ; preds = %12
  %14 = tail call ptr @EC_KEY_get0_public_key(ptr noundef nonnull %1) #5
  %.not84 = icmp eq ptr %14, null
  br i1 %.not84, label %26, label %15

15:                                               ; preds = %13
  %16 = tail call i32 @EC_KEY_get_conv_form(ptr noundef nonnull %1) #5
  %17 = tail call i64 @EC_POINT_point2oct(ptr noundef nonnull %7, ptr noundef nonnull %14, i32 noundef %16, ptr noundef null, i64 noundef 0, ptr noundef nonnull %10) #5
  %18 = icmp eq i64 %17, 0
  br i1 %18, label %56, label %19

19:                                               ; preds = %15
  %20 = tail call noalias ptr @malloc(i64 noundef %17) #6
  %21 = icmp eq ptr %20, null
  br i1 %21, label %56, label %22

22:                                               ; preds = %19
  %23 = tail call i32 @EC_KEY_get_conv_form(ptr noundef nonnull %1) #5
  %24 = tail call i64 @EC_POINT_point2oct(ptr noundef nonnull %7, ptr noundef nonnull %14, i32 noundef %23, ptr noundef nonnull %20, i64 noundef %17, ptr noundef nonnull %10) #5
  %25 = icmp eq i64 %24, 0
  br i1 %25, label %56, label %26

26:                                               ; preds = %22, %13
  %.1 = phi ptr [ null, %13 ], [ %20, %22 ]
  %.0 = phi i64 [ 0, %13 ], [ %24, %22 ]
  %27 = icmp eq i32 %3, 2
  br i1 %27, label %28, label %33

28:                                               ; preds = %26
  %29 = tail call ptr @EC_KEY_get0_private_key(ptr noundef nonnull %1) #5
  %.not85 = icmp eq ptr %29, null
  br i1 %.not85, label %33, label %30

30:                                               ; preds = %28
  %31 = tail call i32 @BN_num_bytes(ptr noundef nonnull %29) #5
  %32 = zext i32 %31 to i64
  %spec.select = tail call i64 @llvm.umax.i64(i64 %.0, i64 %32)
  br label %33

33:                                               ; preds = %30, %26, %28
  %.166.ph = phi i64 [ %.0, %26 ], [ %spec.select, %30 ], [ %.0, %28 ]
  %.057.ph = phi ptr [ null, %26 ], [ %29, %30 ], [ null, %28 ]
  %34 = add i64 %.166.ph, 10
  %35 = tail call noalias ptr @malloc(i64 noundef %34) #6
  %36 = icmp eq ptr %35, null
  br i1 %36, label %56, label %37

37:                                               ; preds = %33
  %38 = icmp eq i32 %3, 1
  %.str.33..str.40 = select i1 %38, ptr @.str.33, ptr @.str.40
  %spec.select138 = select i1 %27, ptr @.str.32, ptr %.str.33..str.40
  br label %.thread108

.thread108:                                       ; preds = %37, %12
  %.159117 = phi ptr [ null, %12 ], [ %35, %37 ]
  %.095102116 = phi i64 [ 0, %12 ], [ %.0, %37 ]
  %.194104115 = phi ptr [ null, %12 ], [ %.1, %37 ]
  %.057107114 = phi ptr [ null, %12 ], [ %.057.ph, %37 ]
  %39 = phi ptr [ @.str.40, %12 ], [ %spec.select138, %37 ]
  %40 = tail call i32 @BIO_indent(ptr noundef %0, i32 noundef %2, i32 noundef 128) #5
  %.not86 = icmp eq i32 %40, 0
  br i1 %.not86, label %56, label %41

41:                                               ; preds = %.thread108
  %42 = tail call ptr @BN_new() #5
  %43 = icmp eq ptr %42, null
  br i1 %43, label %56, label %44

44:                                               ; preds = %41
  %45 = tail call i32 @EC_GROUP_get_order(ptr noundef nonnull %7, ptr noundef nonnull %42, ptr noundef null) #5
  %.not87 = icmp eq i32 %45, 0
  br i1 %.not87, label %56, label %46

46:                                               ; preds = %44
  %47 = tail call i32 @BN_num_bits(ptr noundef nonnull %42) #5
  %48 = tail call i32 (ptr, ptr, ...) @BIO_printf(ptr noundef %0, ptr noundef nonnull @.str.34, ptr noundef nonnull %39, i32 noundef %47) #5
  %49 = icmp slt i32 %48, 1
  br i1 %49, label %56, label %50

50:                                               ; preds = %46
  %.not88 = icmp eq ptr %.057107114, null
  br i1 %.not88, label %53, label %51

51:                                               ; preds = %50
  %52 = tail call fastcc i32 @bn_print(ptr noundef %0, ptr noundef nonnull @.str.35, ptr noundef nonnull %.057107114, ptr noundef %.159117, i32 noundef %2)
  %.not89 = icmp eq i32 %52, 0
  br i1 %.not89, label %56, label %53

53:                                               ; preds = %51, %50
  %.not90 = icmp eq ptr %.194104115, null
  br i1 %.not90, label %57, label %54

54:                                               ; preds = %53
  %55 = tail call i32 @BIO_hexdump(ptr noundef %0, ptr noundef nonnull %.194104115, i64 noundef %.095102116, i32 noundef %2) #5
  br label %57

56:                                               ; preds = %41, %46, %51, %44, %.thread108, %6, %4, %9, %15, %19, %22, %33
  %.063.ph = phi i32 [ 65, %33 ], [ 65, %22 ], [ 65, %19 ], [ 65, %15 ], [ 65, %9 ], [ 67, %4 ], [ 67, %6 ], [ 17, %.thread108 ], [ 17, %44 ], [ 17, %51 ], [ 17, %46 ], [ 17, %41 ]
  %.062.ph = phi ptr [ null, %33 ], [ null, %22 ], [ null, %19 ], [ null, %15 ], [ null, %9 ], [ null, %4 ], [ null, %6 ], [ null, %.thread108 ], [ %42, %44 ], [ %42, %51 ], [ %42, %46 ], [ null, %41 ]
  %.061.ph = phi ptr [ %10, %33 ], [ %10, %22 ], [ %10, %19 ], [ %10, %15 ], [ null, %9 ], [ null, %4 ], [ null, %6 ], [ %10, %.thread108 ], [ %10, %44 ], [ %10, %51 ], [ %10, %46 ], [ %10, %41 ]
  %.058.ph = phi ptr [ null, %33 ], [ null, %22 ], [ null, %19 ], [ null, %15 ], [ null, %9 ], [ null, %4 ], [ null, %6 ], [ %.159117, %.thread108 ], [ %.159117, %44 ], [ %.159117, %51 ], [ %.159117, %46 ], [ %.159117, %41 ]
  %.056.ph = phi ptr [ %.1, %33 ], [ %20, %22 ], [ null, %19 ], [ null, %15 ], [ null, %9 ], [ null, %4 ], [ null, %6 ], [ %.194104115, %.thread108 ], [ %.194104115, %44 ], [ %.194104115, %51 ], [ %.194104115, %46 ], [ %.194104115, %41 ]
  tail call void @ERR_put_error(i32 noundef 6, i32 noundef 0, i32 noundef %.063.ph, ptr noundef nonnull @.str.4, i32 noundef 426) #5
  br label %57

57:                                               ; preds = %54, %53, %56
  %.056136 = phi ptr [ %.056.ph, %56 ], [ %.194104115, %54 ], [ null, %53 ]
  %.058134 = phi ptr [ %.058.ph, %56 ], [ %.159117, %54 ], [ %.159117, %53 ]
  %.061132 = phi ptr [ %.061.ph, %56 ], [ %10, %54 ], [ %10, %53 ]
  %.062130 = phi ptr [ %.062.ph, %56 ], [ %42, %54 ], [ %42, %53 ]
  %.064127 = phi i32 [ 0, %56 ], [ 1, %54 ], [ 1, %53 ]
  tail call void @free(ptr noundef %.056136) #5
  tail call void @BN_free(ptr noundef %.062130) #5
  tail call void @BN_CTX_free(ptr noundef %.061132) #5
  tail call void @free(ptr noundef %.058134) #5
  ret i32 %.064127
}